; Function Attrs: mustprogress uwtable
define dso_local void @_ZN13Probabilities14set_prob_tableEP16ProbabilityTableIj8ProbNameES1_(ptr noundef nonnull align 8 dereferenceable(288) %0, ptr noundef %1, i32 noundef %2) local_unnamed_addr #3 align 2 {
  %4 = alloca i32, align 4
  store i32 %2, ptr %4, align 4
  %5 = getelementptr inbounds i8, ptr %0, i64 144
  %6 = call noundef nonnull align 8 dereferenceable(8) ptr @_ZNSt3mapI8ProbNameP8ProbElemSt4lessIS0_ESaISt4pairIKS0_S2_EEEixERS6_(ptr noundef nonnull align 8 dereferenceable(48) %5, ptr noundef nonnull align 4 dereferenceable(4) %4)
  %7 = load ptr, ptr %6, align 8
  %8 = load ptr, ptr %7, align 8
  %9 = getelementptr inbounds i8, ptr %8, i64 48
  %10 = load ptr, ptr %9, align 8
  call void %10(ptr noundef nonnull align 8 dereferenceable(8) %7, ptr noundef %1)
  ret void
}